target datalayout = "e-m:e-p270:32:32-p271:32:32-p272:64:64-i64:64-i128:128-f80:128-n8:16:32:64-S128"
target triple = "x86_64-pc-linux-gnu"

%"class.icu_77::FieldPositionOnlyHandler" = type <{ %"class.icu_77::FieldPositionHandler.base", [4 x i8], ptr, i8, i8, [6 x i8] }>
%"class.icu_77::FieldPositionHandler.base" = type <{ ptr, i32 }>

; Function Attrs: mustprogress uwtable
define noundef nonnull align 8 dereferenceable(64) ptr @_ZNK6icu_7716SimpleDateFormat6formatERNS_8CalendarERNS_13UnicodeStringERNS_13FieldPositionE(ptr noundef nonnull align 8 dereferenceable(528) %0, ptr noundef nonnull align 8 dereferenceable(192) %1, ptr noundef nonnull align 8 dereferenceable(64) %2, ptr noundef nonnull align 8 dereferenceable(20) %3) unnamed_addr #1 align 2 personality ptr @__gxx_personality_v0 {
  %5 = alloca ptr, align 8
  %6 = alloca ptr, align 8
  %7 = alloca ptr, align 8
  %8 = alloca ptr, align 8
  %9 = alloca i32, align 4
  %10 = alloca %"class.icu_77::FieldPositionOnlyHandler", align 8
  %11 = alloca ptr, align 8
  %12 = alloca i32, align 4
  store ptr %0, ptr %5, align 8, !tbaa !23
  store ptr %1, ptr %6, align 8, !tbaa !150
  store ptr %2, ptr %7, align 8, !tbaa !72
  store ptr %3, ptr %8, align 8, !tbaa !151
  %13 = load ptr, ptr %5, align 8
  call void @llvm.lifetime.start.p0(i64 4, ptr %9) #12
  store i32 0, ptr %9, align 4, !tbaa !15
  call void @llvm.lifetime.start.p0(i64 32, ptr %10) #12
  %14 = load ptr, ptr %8, align 8, !tbaa !151
  call void @_ZN6icu_7724FieldPositionOnlyHandlerC1ERNS_13FieldPositionE(ptr noundef nonnull align 8 dereferenceable(26) %10, ptr noundef nonnull align 8 dereferenceable(20) %14)
  %15 = load ptr, ptr %6, align 8, !tbaa !150
  %16 = load ptr, ptr %7, align 8, !tbaa !72
  %17 = invoke noundef nonnull align 8 dereferenceable(64) ptr @_ZNK6icu_7716SimpleDateFormat7_formatERNS_8CalendarERNS_13UnicodeStringERNS_20FieldPositionHandlerER10UErrorCode(ptr noundef nonnull align 8 dereferenceable(528) %13, ptr noundef nonnull align 8 dereferenceable(192) %15, ptr noundef nonnull align 8 dereferenceable(64) %16, ptr noundef nonnull align 8 dereferenceable(12) %10, ptr noundef nonnull align 4 dereferenceable(4) %9)
          to label %18 unwind label %19

18:                                               ; preds = %4
  call void @_ZN6icu_7724FieldPositionOnlyHandlerD1Ev(ptr noundef nonnull align 8 dereferenceable(26) %10) #12
  call void @llvm.lifetime.end.p0(i64 32, ptr %10) #12
  call void @llvm.lifetime.end.p0(i64 4, ptr %9) #12
  ret ptr %17

19:                                               ; preds = %4
  %20 = landingpad { ptr, i32 }
          cleanup
  %21 = extractvalue { ptr, i32 } %20, 0
  store ptr %21, ptr %11, align 8
  %22 = extractvalue { ptr, i32 } %20, 1
  store i32 %22, ptr %12, align 4
  call void @_ZN6icu_7724FieldPositionOnlyHandlerD1Ev(ptr noundef nonnull align 8 dereferenceable(26) %10) #12
  call void @llvm.lifetime.end.p0(i64 32, ptr %10) #12
  call void @llvm.lifetime.end.p0(i64 4, ptr %9) #12
  br label %23

23:                                               ; preds = %19
  %24 = load ptr, ptr %11, align 8
  %25 = load i32, ptr %12, align 4
  %26 = insertvalue { ptr, i32 } poison, ptr %24, 0
  %27 = insertvalue { ptr, i32 } %26, i32 %25, 1
  resume { ptr, i32 } %27
}