; Function Attrs: mustprogress uwtable
define noundef nonnull align 8 dereferenceable(64) ptr @_ZNK6icu_7716SimpleDateFormat6formatERNS_8CalendarERNS_13UnicodeStringERNS_13FieldPositionE(ptr noundef nonnull align 8 dereferenceable(528) %0, ptr noundef nonnull align 8 dereferenceable(192) %1, ptr noundef nonnull returned align 8 dereferenceable(64) %2, ptr noundef nonnull align 8 dereferenceable(20) %3) unnamed_addr #1 align 2 personality ptr @__gxx_personality_v0 {
  %5 = alloca i32, align 4
  %6 = alloca %"class.icu_77::FieldPositionOnlyHandler", align 8
  call void @llvm.lifetime.start.p0(i64 4, ptr nonnull %5) #23
  store i32 0, ptr %5, align 4, !tbaa !13
  call void @llvm.lifetime.start.p0(i64 32, ptr nonnull %6) #23
  call void @_ZN6icu_7724FieldPositionOnlyHandlerC1ERNS_13FieldPositionE(ptr noundef nonnull align 8 dereferenceable(26) %6, ptr noundef nonnull align 8 dereferenceable(20) %3)
  %7 = invoke noundef nonnull align 8 dereferenceable(64) ptr @_ZNK6icu_7716SimpleDateFormat7_formatERNS_8CalendarERNS_13UnicodeStringERNS_20FieldPositionHandlerER10UErrorCode(ptr noundef nonnull align 8 dereferenceable(528) %0, ptr noundef nonnull align 8 dereferenceable(192) %1, ptr noundef nonnull align 8 dereferenceable(64) %2, ptr noundef nonnull align 8 dereferenceable(12) %6, ptr noundef nonnull align 4 dereferenceable(4) %5)
          to label %8 unwind label %9

8:                                                ; preds = %4
  call void @_ZN6icu_7724FieldPositionOnlyHandlerD1Ev(ptr noundef nonnull align 8 dereferenceable(26) %6) #23
  call void @llvm.lifetime.end.p0(i64 32, ptr nonnull %6) #23
  call void @llvm.lifetime.end.p0(i64 4, ptr nonnull %5) #23
  ret ptr %2

9:                                                ; preds = %4
  %10 = landingpad { ptr, i32 }
          cleanup
  call void @_ZN6icu_7724FieldPositionOnlyHandlerD1Ev(ptr noundef nonnull align 8 dereferenceable(26) %6) #23
  call void @llvm.lifetime.end.p0(i64 32, ptr nonnull %6) #23
  call void @llvm.lifetime.end.p0(i64 4, ptr nonnull %5) #23
  resume { ptr, i32 } %10
}